target datalayout = "e-m:e-p270:32:32-p271:32:32-p272:64:64-i64:64-i128:128-f80:128-n8:16:32:64-S128"
target triple = "x86_64-pc-linux-gnu"

%"struct.vcpkg::StringView" = type { ptr, i64 }
%"struct.vcpkg::LocalizedString" = type { %"class.std::__cxx11::basic_string" }
%"class.std::__cxx11::basic_string" = type { %"struct.std::__cxx11::basic_string<char>::_Alloc_hider", i64, %union.anon }
%"struct.std::__cxx11::basic_string<char>::_Alloc_hider" = type { ptr }
%union.anon = type { i64, [8 x i8] }
%"struct.vcpkg::Path" = type { %"class.std::__cxx11::basic_string" }
%"struct.vcpkg::Command" = type { %"class.std::__cxx11::basic_string" }
%"struct.vcpkg::ExpectedT.154" = type <{ %union.anon.155, i8, [7 x i8] }>
%union.anon.155 = type { %"struct.vcpkg::LocalizedString" }
%"struct.(anonymous namespace)::GcsStorageTool" = type { %"struct.(anonymous namespace)::IObjectStorageTool", %"struct.vcpkg::Path" }
%"struct.(anonymous namespace)::IObjectStorageTool" = type { ptr }
%"struct.vcpkg::ExpectedT.450" = type <{ %union.anon.451, i8, [7 x i8] }>
%union.anon.451 = type { %"struct.vcpkg::ExpectedHolder.452" }
%"struct.vcpkg::ExpectedHolder.452" = type { %"struct.vcpkg::ExitCodeAndOutput" }
%"struct.vcpkg::ExitCodeAndOutput" = type { i32, %"class.std::__cxx11::basic_string" }

@_ZN5vcpkg5ToolsL6GSUTILE = internal constant { ptr, i64 } { ptr @.str.81, i64 6 }, align 8
@.str.103 = private unnamed_addr constant [3 x i8] c"-q\00", align 1
@.str.105 = private unnamed_addr constant [3 x i8] c"cp\00", align 1

; Function Attrs: mustprogress nounwind uwtable
define linkonce_odr dso_local void @_ZN5vcpkg17ExitCodeAndOutputD2Ev(ptr noundef nonnull align 8 dereferenceable(40) %0) unnamed_addr #1 comdat align 2 {
  %2 = alloca ptr, align 8
  store ptr %0, ptr %2, align 8
  %3 = load ptr, ptr %2, align 8
  %4 = getelementptr inbounds %"struct.vcpkg::ExitCodeAndOutput", ptr %3, i32 0, i32 1
  call void @_ZNSt7__cxx1112basic_stringIcSt11char_traitsIcESaIcEED1Ev(ptr noundef nonnull align 8 dereferenceable(32) %4) #8
  ret void
}

; Function Attrs: mustprogress nounwind uwtable
define linkonce_odr dso_local void @_ZN5vcpkg14ExpectedHolderINS_17ExitCodeAndOutputEED2Ev(ptr noundef nonnull align 8 dereferenceable(40) %0) unnamed_addr #1 comdat align 2 {
  %2 = alloca ptr, align 8
  store ptr %0, ptr %2, align 8
  %3 = load ptr, ptr %2, align 8
  %4 = getelementptr inbounds %"struct.vcpkg::ExpectedHolder.452", ptr %3, i32 0, i32 0
  call void @_ZN5vcpkg17ExitCodeAndOutputD2Ev(ptr noundef nonnull align 8 dereferenceable(40) %4) #8
  ret void
}

; Function Attrs: mustprogress nounwind uwtable
define linkonce_odr dso_local void @_ZN5vcpkg15LocalizedStringD2Ev(ptr noundef nonnull align 8 dereferenceable(32) %0) unnamed_addr #1 comdat align 2 {
  %2 = alloca ptr, align 8
  store ptr %0, ptr %2, align 8
  %3 = load ptr, ptr %2, align 8
  %4 = getelementptr inbounds %"struct.vcpkg::LocalizedString", ptr %3, i32 0, i32 0
  call void @_ZNSt7__cxx1112basic_stringIcSt11char_traitsIcESaIcEED1Ev(ptr noundef nonnull align 8 dereferenceable(32) %4) #8
  ret void
}

; Function Attrs: mustprogress nounwind uwtable
define linkonce_odr dso_local void @_ZN5vcpkg7CommandD2Ev(ptr noundef nonnull align 8 dereferenceable(32) %0) unnamed_addr #1 comdat align 2 {
  %2 = alloca ptr, align 8
  store ptr %0, ptr %2, align 8
  %3 = load ptr, ptr %2, align 8
  %4 = getelementptr inbounds %"struct.vcpkg::Command", ptr %3, i32 0, i32 0
  call void @_ZNSt7__cxx1112basic_stringIcSt11char_traitsIcESaIcEED1Ev(ptr noundef nonnull align 8 dereferenceable(32) %4) #8
  ret void
}

; Function Attrs: mustprogress nounwind uwtable
define linkonce_odr dso_local void @_ZN5vcpkg9ExpectedTINS_17ExitCodeAndOutputENS_15LocalizedStringEED2Ev(ptr noundef nonnull align 8 dereferenceable(41) %0) unnamed_addr #1 comdat align 2 {
  %2 = alloca ptr, align 8
  store ptr %0, ptr %2, align 8
  %3 = load ptr, ptr %2, align 8
  %4 = getelementptr inbounds %"struct.vcpkg::ExpectedT.450", ptr %3, i32 0, i32 1
  %5 = load i8, ptr %4, align 8
  %6 = trunc i8 %5 to i1
  br i1 %6, label %7, label %9

7:                                                ; preds = %1
  %8 = getelementptr inbounds %"struct.vcpkg::ExpectedT.450", ptr %3, i32 0, i32 0
  call void @_ZN5vcpkg15LocalizedStringD2Ev(ptr noundef nonnull align 8 dereferenceable(32) %8) #8
  br label %11

9:                                                ; preds = %1
  %10 = getelementptr inbounds %"struct.vcpkg::ExpectedT.450", ptr %3, i32 0, i32 0
  call void @_ZN5vcpkg14ExpectedHolderINS_17ExitCodeAndOutputEED2Ev(ptr noundef nonnull align 8 dereferenceable(40) %10) #8
  br label %11

11:                                               ; preds = %9, %7
  ret void
}

; Function Attrs: mustprogress uwtable
define linkonce_odr dso_local noundef nonnull align 8 dereferenceable(32) ptr @_ZNO5vcpkg7Command10string_argENS_10StringViewE(ptr noundef nonnull align 8 dereferenceable(32) %0, ptr %1, i64 %2) #0 comdat align 2 {
  %4 = alloca %"struct.vcpkg::StringView", align 8
  %5 = alloca ptr, align 8
  %6 = alloca %"struct.vcpkg::StringView", align 8
  %7 = getelementptr inbounds { ptr, i64 }, ptr %4, i32 0, i32 0
  store ptr %1, ptr %7, align 8
  %8 = getelementptr inbounds { ptr, i64 }, ptr %4, i32 0, i32 1
  store i64 %2, ptr %8, align 8
  store ptr %0, ptr %5, align 8
  %9 = load ptr, ptr %5, align 8
  call void @llvm.memcpy.p0.p0.i64(ptr align 8 %6, ptr align 8 %4, i64 16, i1 false)
  %10 = getelementptr inbounds { ptr, i64 }, ptr %6, i32 0, i32 0
  %11 = load ptr, ptr %10, align 8
  %12 = getelementptr inbounds { ptr, i64 }, ptr %6, i32 0, i32 1
  %13 = load i64, ptr %12, align 8
  %14 = call noundef nonnull align 8 dereferenceable(32) ptr @_ZNR5vcpkg7Command10string_argENS_10StringViewE(ptr noundef nonnull align 8 dereferenceable(32) %9, ptr %11, i64 %13)
  ret ptr %14
}

; Function Attrs: mustprogress nounwind uwtable
define linkonce_odr dso_local void @_ZN5vcpkg10StringViewC2EPKc(ptr noundef nonnull align 8 dereferenceable(16) %0, ptr noundef %1) unnamed_addr #1 comdat align 2 {
  %3 = alloca ptr, align 8
  %4 = alloca ptr, align 8
  store ptr %0, ptr %3, align 8
  store ptr %1, ptr %4, align 8
  %5 = load ptr, ptr %3, align 8
  %6 = getelementptr inbounds %"struct.vcpkg::StringView", ptr %5, i32 0, i32 0
  %7 = load ptr, ptr %4, align 8
  store ptr %7, ptr %6, align 8
  %8 = getelementptr inbounds %"struct.vcpkg::StringView", ptr %5, i32 0, i32 1
  %9 = load ptr, ptr %4, align 8
  %10 = call i64 @strlen(ptr noundef %9) #19
  store i64 %10, ptr %8, align 8
  ret void
}

; Function Attrs: mustprogress uwtable
define linkonce_odr dso_local void @_ZN5vcpkg7CommandC2ENS_10StringViewE(ptr noundef nonnull align 8 dereferenceable(32) %0, ptr %1, i64 %2) unnamed_addr #0 comdat align 2 personality ptr @__gxx_personality_v0 {
  %4 = alloca %"struct.vcpkg::StringView", align 8
  %5 = alloca ptr, align 8
  %6 = alloca %"struct.vcpkg::StringView", align 8
  %7 = alloca ptr, align 8
  %8 = alloca i32, align 4
  %9 = getelementptr inbounds { ptr, i64 }, ptr %4, i32 0, i32 0
  store ptr %1, ptr %9, align 8
  %10 = getelementptr inbounds { ptr, i64 }, ptr %4, i32 0, i32 1
  store i64 %2, ptr %10, align 8
  store ptr %0, ptr %5, align 8
  %11 = load ptr, ptr %5, align 8
  %12 = getelementptr inbounds %"struct.vcpkg::Command", ptr %11, i32 0, i32 0
  call void @_ZNSt7__cxx1112basic_stringIcSt11char_traitsIcESaIcEEC1Ev(ptr noundef nonnull align 8 dereferenceable(32) %12) #8
  call void @llvm.memcpy.p0.p0.i64(ptr align 8 %6, ptr align 8 %4, i64 16, i1 false)
  %13 = getelementptr inbounds { ptr, i64 }, ptr %6, i32 0, i32 0
  %14 = load ptr, ptr %13, align 8
  %15 = getelementptr inbounds { ptr, i64 }, ptr %6, i32 0, i32 1
  %16 = load i64, ptr %15, align 8
  %17 = invoke noundef nonnull align 8 dereferenceable(32) ptr @_ZNR5vcpkg7Command10string_argENS_10StringViewE(ptr noundef nonnull align 8 dereferenceable(32) %11, ptr %14, i64 %16)
          to label %18 unwind label %19

18:                                               ; preds = %3
  ret void

19:                                               ; preds = %3
  %20 = landingpad { ptr, i32 }
          cleanup
  %21 = extractvalue { ptr, i32 } %20, 0
  store ptr %21, ptr %7, align 8
  %22 = extractvalue { ptr, i32 } %20, 1
  store i32 %22, ptr %8, align 4
  call void @_ZNSt7__cxx1112basic_stringIcSt11char_traitsIcESaIcEED1Ev(ptr noundef nonnull align 8 dereferenceable(32) %12) #8
  br label %23

23:                                               ; preds = %19
  %24 = load ptr, ptr %7, align 8
  %25 = load i32, ptr %8, align 4
  %26 = insertvalue { ptr, i32 } poison, ptr %24, 0
  %27 = insertvalue { ptr, i32 } %26, i32 %25, 1
  resume { ptr, i32 } %27
}

; Function Attrs: mustprogress uwtable
define internal void @_ZNK12_GLOBAL__N_114GcsStorageTool13download_fileEN5vcpkg10StringViewERKNS1_4PathE(ptr dead_on_unwind noalias writable sret(%"struct.vcpkg::ExpectedT.154") align 8 %0, ptr noundef nonnull align 8 dereferenceable(40) %1, ptr %2, i64 %3, ptr noundef nonnull align 8 dereferenceable(32) %4) unnamed_addr #0 align 2 personality ptr @__gxx_personality_v0 {
  %6 = alloca ptr, align 8
  %7 = alloca %"struct.vcpkg::StringView", align 8
  %8 = alloca ptr, align 8
  %9 = alloca ptr, align 8
  %10 = alloca %"struct.vcpkg::ExpectedT.450", align 8
  %11 = alloca %"struct.vcpkg::Command", align 8
  %12 = alloca %"struct.vcpkg::StringView", align 8
  %13 = alloca %"struct.vcpkg::StringView", align 8
  %14 = alloca ptr, align 8
  %15 = alloca i32, align 4
  %16 = alloca %"struct.vcpkg::StringView", align 8
  %17 = alloca %"struct.vcpkg::StringView", align 8
  %18 = alloca %"struct.vcpkg::StringView", align 8
  %19 = alloca %"struct.vcpkg::StringView", align 8
  store ptr %0, ptr %6, align 8
  %20 = getelementptr inbounds { ptr, i64 }, ptr %7, i32 0, i32 0
  store ptr %2, ptr %20, align 8
  %21 = getelementptr inbounds { ptr, i64 }, ptr %7, i32 0, i32 1
  store i64 %3, ptr %21, align 8
  store ptr %1, ptr %8, align 8
  store ptr %4, ptr %9, align 8
  %22 = load ptr, ptr %8, align 8
  %23 = getelementptr inbounds %"struct.(anonymous namespace)::GcsStorageTool", ptr %22, i32 0, i32 1
  %24 = call { ptr, i64 } @_ZNK5vcpkg4PathcvNS_10StringViewEEv(ptr noundef nonnull align 8 dereferenceable(32) %23) #8
  %25 = getelementptr inbounds { ptr, i64 }, ptr %12, i32 0, i32 0
  %26 = extractvalue { ptr, i64 } %24, 0
  store ptr %26, ptr %25, align 8
  %27 = getelementptr inbounds { ptr, i64 }, ptr %12, i32 0, i32 1
  %28 = extractvalue { ptr, i64 } %24, 1
  store i64 %28, ptr %27, align 8
  %29 = getelementptr inbounds { ptr, i64 }, ptr %12, i32 0, i32 0
  %30 = load ptr, ptr %29, align 8
  %31 = getelementptr inbounds { ptr, i64 }, ptr %12, i32 0, i32 1
  %32 = load i64, ptr %31, align 8
  call void @_ZN5vcpkg7CommandC2ENS_10StringViewE(ptr noundef nonnull align 8 dereferenceable(32) %11, ptr %30, i64 %32)
  call void @_ZN5vcpkg10StringViewC2EPKc(ptr noundef nonnull align 8 dereferenceable(16) %13, ptr noundef @.str.103) #8
  %33 = getelementptr inbounds { ptr, i64 }, ptr %13, i32 0, i32 0
  %34 = load ptr, ptr %33, align 8
  %35 = getelementptr inbounds { ptr, i64 }, ptr %13, i32 0, i32 1
  %36 = load i64, ptr %35, align 8
  %37 = invoke noundef nonnull align 8 dereferenceable(32) ptr @_ZNO5vcpkg7Command10string_argENS_10StringViewE(ptr noundef nonnull align 8 dereferenceable(32) %11, ptr %34, i64 %36)
          to label %38 unwind label %69

38:                                               ; preds = %5
  call void @_ZN5vcpkg10StringViewC2EPKc(ptr noundef nonnull align 8 dereferenceable(16) %16, ptr noundef @.str.105) #8
  %39 = getelementptr inbounds { ptr, i64 }, ptr %16, i32 0, i32 0
  %40 = load ptr, ptr %39, align 8
  %41 = getelementptr inbounds { ptr, i64 }, ptr %16, i32 0, i32 1
  %42 = load i64, ptr %41, align 8
  %43 = invoke noundef nonnull align 8 dereferenceable(32) ptr @_ZNO5vcpkg7Command10string_argENS_10StringViewE(ptr noundef nonnull align 8 dereferenceable(32) %37, ptr %40, i64 %42)
          to label %44 unwind label %69

44:                                               ; preds = %38
  call void @llvm.memcpy.p0.p0.i64(ptr align 8 %17, ptr align 8 %7, i64 16, i1 false)
  %45 = getelementptr inbounds { ptr, i64 }, ptr %17, i32 0, i32 0
  %46 = load ptr, ptr %45, align 8
  %47 = getelementptr inbounds { ptr, i64 }, ptr %17, i32 0, i32 1
  %48 = load i64, ptr %47, align 8
  %49 = invoke noundef nonnull align 8 dereferenceable(32) ptr @_ZNO5vcpkg7Command10string_argENS_10StringViewE(ptr noundef nonnull align 8 dereferenceable(32) %43, ptr %46, i64 %48)
          to label %50 unwind label %69

50:                                               ; preds = %44
  %51 = load ptr, ptr %9, align 8
  %52 = call { ptr, i64 } @_ZNK5vcpkg4PathcvNS_10StringViewEEv(ptr noundef nonnull align 8 dereferenceable(32) %51) #8
  %53 = getelementptr inbounds { ptr, i64 }, ptr %18, i32 0, i32 0
  %54 = extractvalue { ptr, i64 } %52, 0
  store ptr %54, ptr %53, align 8
  %55 = getelementptr inbounds { ptr, i64 }, ptr %18, i32 0, i32 1
  %56 = extractvalue { ptr, i64 } %52, 1
  store i64 %56, ptr %55, align 8
  %57 = getelementptr inbounds { ptr, i64 }, ptr %18, i32 0, i32 0
  %58 = load ptr, ptr %57, align 8
  %59 = getelementptr inbounds { ptr, i64 }, ptr %18, i32 0, i32 1
  %60 = load i64, ptr %59, align 8
  %61 = invoke noundef nonnull align 8 dereferenceable(32) ptr @_ZNO5vcpkg7Command10string_argENS_10StringViewE(ptr noundef nonnull align 8 dereferenceable(32) %49, ptr %58, i64 %60)
          to label %62 unwind label %69

62:                                               ; preds = %50
  invoke void @_ZN5vcpkg30cmd_execute_and_capture_outputERKNS_7CommandE(ptr dead_on_unwind writable sret(%"struct.vcpkg::ExpectedT.450") align 8 %10, ptr noundef nonnull align 8 dereferenceable(32) %61)
          to label %63 unwind label %69

63:                                               ; preds = %62
  call void @llvm.memcpy.p0.p0.i64(ptr align 8 %19, ptr align 8 @_ZN5vcpkg5ToolsL6GSUTILE, i64 16, i1 false)
  %64 = getelementptr inbounds { ptr, i64 }, ptr %19, i32 0, i32 0
  %65 = load ptr, ptr %64, align 8
  %66 = getelementptr inbounds { ptr, i64 }, ptr %19, i32 0, i32 1
  %67 = load i64, ptr %66, align 8
  invoke void @_ZN5vcpkg7flattenERKNS_9ExpectedTINS_17ExitCodeAndOutputENS_15LocalizedStringEEENS_10StringViewE(ptr dead_on_unwind writable sret(%"struct.vcpkg::ExpectedT.154") align 8 %0, ptr noundef nonnull align 8 dereferenceable(41) %10, ptr %65, i64 %67)
          to label %68 unwind label %73

68:                                               ; preds = %63
  call void @_ZN5vcpkg9ExpectedTINS_17ExitCodeAndOutputENS_15LocalizedStringEED2Ev(ptr noundef nonnull align 8 dereferenceable(41) %10) #8
  call void @_ZN5vcpkg7CommandD2Ev(ptr noundef nonnull align 8 dereferenceable(32) %11) #8
  ret void

69:                                               ; preds = %62, %50, %44, %38, %5
  %70 = landingpad { ptr, i32 }
          cleanup
  %71 = extractvalue { ptr, i32 } %70, 0
  store ptr %71, ptr %14, align 8
  %72 = extractvalue { ptr, i32 } %70, 1
  store i32 %72, ptr %15, align 4
  br label %77

73:                                               ; preds = %63
  %74 = landingpad { ptr, i32 }
          cleanup
  %75 = extractvalue { ptr, i32 } %74, 0
  store ptr %75, ptr %14, align 8
  %76 = extractvalue { ptr, i32 } %74, 1
  store i32 %76, ptr %15, align 4
  call void @_ZN5vcpkg9ExpectedTINS_17ExitCodeAndOutputENS_15LocalizedStringEED2Ev(ptr noundef nonnull align 8 dereferenceable(41) %10) #8
  br label %77

77:                                               ; preds = %73, %69
  call void @_ZN5vcpkg7CommandD2Ev(ptr noundef nonnull align 8 dereferenceable(32) %11) #8
  br label %78

78:                                               ; preds = %77
  %79 = load ptr, ptr %14, align 8
  %80 = load i32, ptr %15, align 4
  %81 = insertvalue { ptr, i32 } poison, ptr %79, 0
  %82 = insertvalue { ptr, i32 } %81, i32 %80, 1
  resume { ptr, i32 } %82
}