; Function Attrs: mustprogress uwtable
define internal void @_ZNK12_GLOBAL__N_114GcsStorageTool13download_fileEN5vcpkg10StringViewERKNS1_4PathE(ptr dead_on_unwind noalias writable sret(%"struct.vcpkg::ExpectedT.154") align 8 %0, ptr noundef nonnull align 8 dereferenceable(40) %1, ptr %2, i64 %3, ptr noundef nonnull align 8 dereferenceable(32) %4) unnamed_addr #0 align 2 personality ptr @__gxx_personality_v0 {
  %6 = alloca %"struct.vcpkg::ExpectedT.450", align 8
  %7 = alloca %"struct.vcpkg::Command", align 8
  %8 = getelementptr inbounds i8, ptr %1, i64 8
  %9 = tail call { ptr, i64 } @_ZNK5vcpkg4PathcvNS_10StringViewEEv(ptr noundef nonnull align 8 dereferenceable(32) %8) #24
  %10 = extractvalue { ptr, i64 } %9, 0
  %11 = extractvalue { ptr, i64 } %9, 1
  call void @_ZNSt7__cxx1112basic_stringIcSt11char_traitsIcESaIcEEC1Ev(ptr noundef nonnull align 8 dereferenceable(32) %7) #24
  %12 = invoke noundef nonnull align 8 dereferenceable(32) ptr @_ZNR5vcpkg7Command10string_argENS_10StringViewE(ptr noundef nonnull align 8 dereferenceable(32) %7, ptr %10, i64 %11)
          to label %_ZN5vcpkg7CommandC2ENS_10StringViewE.exit unwind label %13

common.resume:                                    ; preds = %29, %31, %13
  %common.resume.op = phi { ptr, i32 } [ %14, %13 ], [ %32, %31 ], [ %30, %29 ]
  call void @_ZNSt7__cxx1112basic_stringIcSt11char_traitsIcESaIcEED1Ev(ptr noundef nonnull align 8 dereferenceable(32) %7) #24
  resume { ptr, i32 } %common.resume.op

13:                                               ; preds = %5
  %14 = landingpad { ptr, i32 }
          cleanup
  br label %common.resume

_ZN5vcpkg7CommandC2ENS_10StringViewE.exit:        ; preds = %5
  %15 = invoke noundef nonnull align 8 dereferenceable(32) ptr @_ZNR5vcpkg7Command10string_argENS_10StringViewE(ptr noundef nonnull align 8 dereferenceable(32) %7, ptr nonnull @.str.103, i64 2)
          to label %_ZNO5vcpkg7Command10string_argENS_10StringViewE.exit unwind label %29

_ZNO5vcpkg7Command10string_argENS_10StringViewE.exit: ; preds = %_ZN5vcpkg7CommandC2ENS_10StringViewE.exit
  %16 = invoke noundef nonnull align 8 dereferenceable(32) ptr @_ZNR5vcpkg7Command10string_argENS_10StringViewE(ptr noundef nonnull align 8 dereferenceable(32) %15, ptr nonnull @.str.105, i64 2)
          to label %_ZNO5vcpkg7Command10string_argENS_10StringViewE.exit13 unwind label %29

_ZNO5vcpkg7Command10string_argENS_10StringViewE.exit13: ; preds = %_ZNO5vcpkg7Command10string_argENS_10StringViewE.exit
  %17 = invoke noundef nonnull align 8 dereferenceable(32) ptr @_ZNR5vcpkg7Command10string_argENS_10StringViewE(ptr noundef nonnull align 8 dereferenceable(32) %16, ptr %2, i64 %3)
          to label %_ZNO5vcpkg7Command10string_argENS_10StringViewE.exit14 unwind label %29

_ZNO5vcpkg7Command10string_argENS_10StringViewE.exit14: ; preds = %_ZNO5vcpkg7Command10string_argENS_10StringViewE.exit13
  %18 = call { ptr, i64 } @_ZNK5vcpkg4PathcvNS_10StringViewEEv(ptr noundef nonnull align 8 dereferenceable(32) %4) #24
  %19 = extractvalue { ptr, i64 } %18, 0
  %20 = extractvalue { ptr, i64 } %18, 1
  %21 = invoke noundef nonnull align 8 dereferenceable(32) ptr @_ZNR5vcpkg7Command10string_argENS_10StringViewE(ptr noundef nonnull align 8 dereferenceable(32) %17, ptr %19, i64 %20)
          to label %_ZNO5vcpkg7Command10string_argENS_10StringViewE.exit15 unwind label %29

_ZNO5vcpkg7Command10string_argENS_10StringViewE.exit15: ; preds = %_ZNO5vcpkg7Command10string_argENS_10StringViewE.exit14
  invoke void @_ZN5vcpkg30cmd_execute_and_capture_outputERKNS_7CommandE(ptr dead_on_unwind nonnull writable sret(%"struct.vcpkg::ExpectedT.450") align 8 %6, ptr noundef nonnull align 8 dereferenceable(32) %21)
          to label %22 unwind label %29

22:                                               ; preds = %_ZNO5vcpkg7Command10string_argENS_10StringViewE.exit15
  invoke void @_ZN5vcpkg7flattenERKNS_9ExpectedTINS_17ExitCodeAndOutputENS_15LocalizedStringEEENS_10StringViewE(ptr dead_on_unwind writable sret(%"struct.vcpkg::ExpectedT.154") align 8 %0, ptr noundef nonnull align 8 dereferenceable(41) %6, ptr nonnull @.str.81, i64 6)
          to label %23 unwind label %31

23:                                               ; preds = %22
  %24 = getelementptr inbounds i8, ptr %6, i64 40
  %25 = load i8, ptr %24, align 8
  %26 = shl i8 %25, 3
  %27 = and i8 %26, 8
  %28 = xor i8 %27, 8
  %.sink.idx.i = zext nneg i8 %28 to i64
  %.sink.i = getelementptr inbounds i8, ptr %6, i64 %.sink.idx.i
  call void @_ZNSt7__cxx1112basic_stringIcSt11char_traitsIcESaIcEED1Ev(ptr noundef nonnull align 8 dereferenceable(32) %.sink.i) #24
  call void @_ZNSt7__cxx1112basic_stringIcSt11char_traitsIcESaIcEED1Ev(ptr noundef nonnull align 8 dereferenceable(32) %7) #24
  ret void

29:                                               ; preds = %_ZNO5vcpkg7Command10string_argENS_10StringViewE.exit14, %_ZNO5vcpkg7Command10string_argENS_10StringViewE.exit13, %_ZNO5vcpkg7Command10string_argENS_10StringViewE.exit, %_ZN5vcpkg7CommandC2ENS_10StringViewE.exit, %_ZNO5vcpkg7Command10string_argENS_10StringViewE.exit15
  %30 = landingpad { ptr, i32 }
          cleanup
  br label %common.resume

31:                                               ; preds = %22
  %32 = landingpad { ptr, i32 }
          cleanup
  %33 = getelementptr inbounds i8, ptr %6, i64 40
  %34 = load i8, ptr %33, align 8
  %35 = shl i8 %34, 3
  %36 = and i8 %35, 8
  %37 = xor i8 %36, 8
  %.sink.idx.i16 = zext nneg i8 %37 to i64
  %.sink.i17 = getelementptr inbounds i8, ptr %6, i64 %.sink.idx.i16
  call void @_ZNSt7__cxx1112basic_stringIcSt11char_traitsIcESaIcEED1Ev(ptr noundef nonnull align 8 dereferenceable(32) %.sink.i17) #24
  br label %common.resume
}